; Function Attrs: mustprogress nofree norecurse nounwind willreturn memory(argmem: readwrite) uwtable
define void @_ZN14arrow_vendored4date9tzdb_list10push_frontEPNS0_4tzdbE(ptr noundef nonnull align 8 captures(none) dereferenceable(8) %0, ptr noundef initializes((80, 88)) %1) local_unnamed_addr #6 align 2 personality ptr @__gxx_personality_v0 {
  %3 = load atomic i64, ptr %0 seq_cst, align 8
  %.0.i.i.i = inttoptr i64 %3 to ptr
  %4 = getelementptr inbounds nuw i8, ptr %1, i64 80
  store ptr %.0.i.i.i, ptr %4, align 8, !tbaa !3
  %5 = ptrtoint ptr %1 to i64
  store atomic i64 %5, ptr %0 seq_cst, align 8
  ret void
}